target datalayout = "e-m:e-p270:32:32-p271:32:32-p272:64:64-i64:64-i128:128-f80:128-n8:16:32:64-S128"
target triple = "x86_64-pc-linux-gnu"

%struct.Float4X4 = type { %union.anon }
%union.anon = type { %struct.anon }
%struct.anon = type { float, float, float, float, float, float, float, float, float, float, float, float, float, float, float, float }
%struct.SDL_Renderer = type { ptr, ptr, ptr, ptr, ptr, ptr, ptr, ptr, ptr, ptr, ptr, ptr, ptr, ptr, ptr, ptr, ptr, ptr, ptr, ptr, ptr, ptr, ptr, ptr, ptr, ptr, ptr, ptr, ptr, ptr, i32, i8, ptr, i8, i8, i8, i64, i64, ptr, %struct.SDL_RenderViewState, %struct.SDL_FPoint, i32, i32, ptr, ptr, ptr, i32, float, float, float, float, %struct.SDL_FColor, i32, i32, i32, ptr, ptr, ptr, ptr, i32, %struct.SDL_FColor, float, %struct.SDL_Rect, %struct.SDL_Rect, i8, i8, i8, i8, ptr, i64, i64, i8, ptr, ptr, i32, ptr, i8, ptr, ptr }
%struct.SDL_RenderViewState = type { i32, i32, %struct.SDL_Rect, %struct.SDL_Rect, %struct.SDL_Rect, %struct.SDL_Rect, i8, %struct.SDL_FPoint, i32, i32, i32, %struct.SDL_FRect, %struct.SDL_FRect, %struct.SDL_FPoint, %struct.SDL_FPoint, %struct.SDL_FPoint }
%struct.SDL_FRect = type { float, float, float, float }
%struct.SDL_FPoint = type { float, float }
%struct.SDL_FColor = type { float, float, float, float }
%struct.SDL_Rect = type { i32, i32, i32, i32 }
%struct.VULKAN_RenderData = type { ptr, ptr, i8, ptr, i8, ptr, %struct.VkPhysicalDeviceProperties, %struct.VkPhysicalDeviceMemoryProperties, %struct.VkPhysicalDeviceFeatures, ptr, ptr, ptr, i8, i32, i32, ptr, ptr, ptr, i32, ptr, ptr, %struct.VkSurfaceCapabilitiesKHR, ptr, i8, i32, i32, ptr, [2 x ptr], ptr, [3 x ptr], [3 x ptr], ptr, ptr, [256 x %struct.VULKAN_Buffer], %struct.VULKAN_VertexShaderConstants, ptr, ptr, ptr, ptr, i32, i32, [8 x ptr], ptr, ptr, i32, i32, i32, ptr, ptr, i8, i8, i8, i32, i32, i32, %struct.VkSurfaceFormatKHR, %struct.VkExtent2D, i32, i32, ptr, ptr, ptr, ptr, ptr, ptr, i32, ptr, ptr, i32, i32, ptr, i32, i32, ptr, i8, i8, %struct.SDL_Rect, %struct.SDL_Rect, i32, i8, %struct.Float4X4, %struct.VkComponentMapping, i32, i8 }
%struct.VkPhysicalDeviceProperties = type { i32, i32, i32, i32, i32, [256 x i8], [16 x i8], %struct.VkPhysicalDeviceLimits, %struct.VkPhysicalDeviceSparseProperties }
%struct.VkPhysicalDeviceLimits = type { i32, i32, i32, i32, i32, i32, i32, i32, i32, i32, i32, i64, i64, i32, i32, i32, i32, i32, i32, i32, i32, i32, i32, i32, i32, i32, i32, i32, i32, i32, i32, i32, i32, i32, i32, i32, i32, i32, i32, i32, i32, i32, i32, i32, i32, i32, i32, i32, i32, i32, i32, i32, [3 x i32], i32, [3 x i32], i32, i32, i32, i32, i32, float, float, i32, [2 x i32], [2 x float], i32, i64, i64, i64, i64, i32, i32, i32, i32, float, float, i32, i32, i32, i32, i32, i32, i32, i32, i32, i32, i32, i32, i32, i32, i32, i32, float, i32, i32, i32, i32, [2 x float], [2 x float], float, float, i32, i32, i64, i64, i64 }
%struct.VkPhysicalDeviceSparseProperties = type { i32, i32, i32, i32, i32 }
%struct.VkPhysicalDeviceMemoryProperties = type { i32, [32 x %struct.VkMemoryType], i32, [16 x %struct.VkMemoryHeap] }
%struct.VkMemoryType = type { i32, i32 }
%struct.VkMemoryHeap = type { i64, i32 }
%struct.VkPhysicalDeviceFeatures = type { i32, i32, i32, i32, i32, i32, i32, i32, i32, i32, i32, i32, i32, i32, i32, i32, i32, i32, i32, i32, i32, i32, i32, i32, i32, i32, i32, i32, i32, i32, i32, i32, i32, i32, i32, i32, i32, i32, i32, i32, i32, i32, i32, i32, i32, i32, i32, i32, i32, i32, i32, i32, i32, i32, i32 }
%struct.VkSurfaceCapabilitiesKHR = type { i32, i32, %struct.VkExtent2D, %struct.VkExtent2D, %struct.VkExtent2D, i32, i32, i32, i32, i32 }
%struct.VULKAN_Buffer = type { ptr, ptr, i64, ptr }
%struct.VULKAN_VertexShaderConstants = type { %struct.Float4X4, %struct.Float4X4 }
%struct.VkSurfaceFormatKHR = type { i32, i32 }
%struct.VkExtent2D = type { i32, i32 }
%struct.VkComponentMapping = type { i32, i32, i32, i32 }
%struct.SDL_Texture = type { i32, i32, i32, i32, i32, float, float, i32, i32, i32, %struct.SDL_FColor, %struct.SDL_RenderViewState, ptr, ptr, ptr, ptr, i32, %struct.SDL_Rect, ptr, i32, i32, ptr, ptr, ptr }
%struct.VULKAN_TextureData = type { %struct.VULKAN_Image, [2 x ptr], ptr, %struct.VULKAN_Buffer, %struct.SDL_Rect, i32, i32, i32, ptr, ptr, ptr, ptr }
%struct.VULKAN_Image = type { i8, ptr, ptr, ptr, i32, i32 }
%struct.VkBufferImageCopy = type { i64, i32, i32, %struct.VkImageSubresourceLayers, %struct.VkOffset3D, %struct.VkExtent3D }
%struct.VkImageSubresourceLayers = type { i32, i32, i32, i32 }
%struct.VkOffset3D = type { i32, i32, i32 }
%struct.VkExtent3D = type { i32, i32, i32 }
%struct.VkImageSubresourceRange = type { i32, i32, i32, i32, i32 }
%struct.VkImageMemoryBarrier = type { i32, ptr, i32, i32, i32, i32, i32, i32, ptr, %struct.VkImageSubresourceRange }

@vkFreeMemory = internal global ptr null, align 8
@vkCmdCopyBufferToImage = internal global ptr null, align 8
@vkDestroyBuffer = internal global ptr null, align 8
@vkCmdEndRenderPass = internal global ptr null, align 8
@vkCmdPipelineBarrier = internal global ptr null, align 8

; Function Attrs: nounwind uwtable
define internal void @VULKAN_DestroyBuffer(ptr noundef %0, ptr noundef %1) #0 {
  %3 = alloca ptr, align 8
  %4 = alloca ptr, align 8
  store ptr %0, ptr %3, align 8
  store ptr %1, ptr %4, align 8
  %5 = load ptr, ptr %4, align 8
  %6 = getelementptr inbounds nuw %struct.VULKAN_Buffer, ptr %5, i32 0, i32 1
  %7 = load ptr, ptr %6, align 8
  %8 = icmp ne ptr %7, null
  br i1 %8, label %9, label %19

9:                                                ; preds = %2
  %10 = load ptr, ptr @vkDestroyBuffer, align 8
  %11 = load ptr, ptr %3, align 8
  %12 = getelementptr inbounds nuw %struct.VULKAN_RenderData, ptr %11, i32 0, i32 11
  %13 = load ptr, ptr %12, align 8
  %14 = load ptr, ptr %4, align 8
  %15 = getelementptr inbounds nuw %struct.VULKAN_Buffer, ptr %14, i32 0, i32 1
  %16 = load ptr, ptr %15, align 8
  call void %10(ptr noundef %13, ptr noundef %16, ptr noundef null)
  %17 = load ptr, ptr %4, align 8
  %18 = getelementptr inbounds nuw %struct.VULKAN_Buffer, ptr %17, i32 0, i32 1
  store ptr null, ptr %18, align 8
  br label %19

19:                                               ; preds = %9, %2
  %20 = load ptr, ptr %4, align 8
  %21 = getelementptr inbounds nuw %struct.VULKAN_Buffer, ptr %20, i32 0, i32 0
  %22 = load ptr, ptr %21, align 8
  %23 = icmp ne ptr %22, null
  br i1 %23, label %24, label %34

24:                                               ; preds = %19
  %25 = load ptr, ptr @vkFreeMemory, align 8
  %26 = load ptr, ptr %3, align 8
  %27 = getelementptr inbounds nuw %struct.VULKAN_RenderData, ptr %26, i32 0, i32 11
  %28 = load ptr, ptr %27, align 8
  %29 = load ptr, ptr %4, align 8
  %30 = getelementptr inbounds nuw %struct.VULKAN_Buffer, ptr %29, i32 0, i32 0
  %31 = load ptr, ptr %30, align 8
  call void %25(ptr noundef %28, ptr noundef %31, ptr noundef null)
  %32 = load ptr, ptr %4, align 8
  %33 = getelementptr inbounds nuw %struct.VULKAN_Buffer, ptr %32, i32 0, i32 0
  store ptr null, ptr %33, align 8
  br label %34

34:                                               ; preds = %24, %19
  %35 = load ptr, ptr %4, align 8
  call void @llvm.memset.p0.i64(ptr align 8 %35, i8 0, i64 32, i1 false)
  ret void
}

; Function Attrs: nounwind uwtable
define internal void @VULKAN_RecordPipelineImageBarrier(ptr noundef %0, i32 noundef %1, i32 noundef %2, i32 noundef %3, i32 noundef %4, i32 noundef %5, ptr noundef %6, ptr noundef %7) #0 {
  %9 = alloca ptr, align 8
  %10 = alloca i32, align 4
  %11 = alloca i32, align 4
  %12 = alloca i32, align 4
  %13 = alloca i32, align 4
  %14 = alloca i32, align 4
  %15 = alloca ptr, align 8
  %16 = alloca ptr, align 8
  %17 = alloca %struct.VkImageMemoryBarrier, align 8
  store ptr %0, ptr %9, align 8
  store i32 %1, ptr %10, align 4
  store i32 %2, ptr %11, align 4
  store i32 %3, ptr %12, align 4
  store i32 %4, ptr %13, align 4
  store i32 %5, ptr %14, align 4
  store ptr %6, ptr %15, align 8
  store ptr %7, ptr %16, align 8
  %18 = load ptr, ptr %9, align 8
  %19 = getelementptr inbounds nuw %struct.VULKAN_RenderData, ptr %18, i32 0, i32 28
  %20 = load ptr, ptr %19, align 8
  %21 = icmp ne ptr %20, null
  br i1 %21, label %22, label %29

22:                                               ; preds = %8
  %23 = load ptr, ptr @vkCmdEndRenderPass, align 8
  %24 = load ptr, ptr %9, align 8
  %25 = getelementptr inbounds nuw %struct.VULKAN_RenderData, ptr %24, i32 0, i32 19
  %26 = load ptr, ptr %25, align 8
  call void %23(ptr noundef %26)
  %27 = load ptr, ptr %9, align 8
  %28 = getelementptr inbounds nuw %struct.VULKAN_RenderData, ptr %27, i32 0, i32 28
  store ptr null, ptr %28, align 8
  br label %29

29:                                               ; preds = %22, %8
  call void @llvm.lifetime.start.p0(i64 72, ptr %17) #6
  call void @llvm.memset.p0.i64(ptr align 8 %17, i8 0, i64 72, i1 false)
  %30 = getelementptr inbounds nuw %struct.VkImageMemoryBarrier, ptr %17, i32 0, i32 0
  store i32 45, ptr %30, align 8
  %31 = load i32, ptr %10, align 4
  %32 = getelementptr inbounds nuw %struct.VkImageMemoryBarrier, ptr %17, i32 0, i32 2
  store i32 %31, ptr %32, align 8
  %33 = load i32, ptr %11, align 4
  %34 = getelementptr inbounds nuw %struct.VkImageMemoryBarrier, ptr %17, i32 0, i32 3
  store i32 %33, ptr %34, align 4
  %35 = load ptr, ptr %16, align 8
  %36 = load i32, ptr %35, align 4
  %37 = getelementptr inbounds nuw %struct.VkImageMemoryBarrier, ptr %17, i32 0, i32 4
  store i32 %36, ptr %37, align 8
  %38 = load i32, ptr %14, align 4
  %39 = getelementptr inbounds nuw %struct.VkImageMemoryBarrier, ptr %17, i32 0, i32 5
  store i32 %38, ptr %39, align 4
  %40 = getelementptr inbounds nuw %struct.VkImageMemoryBarrier, ptr %17, i32 0, i32 6
  store i32 -1, ptr %40, align 8
  %41 = getelementptr inbounds nuw %struct.VkImageMemoryBarrier, ptr %17, i32 0, i32 7
  store i32 -1, ptr %41, align 4
  %42 = load ptr, ptr %15, align 8
  %43 = getelementptr inbounds nuw %struct.VkImageMemoryBarrier, ptr %17, i32 0, i32 8
  store ptr %42, ptr %43, align 8
  %44 = getelementptr inbounds nuw %struct.VkImageMemoryBarrier, ptr %17, i32 0, i32 9
  %45 = getelementptr inbounds nuw %struct.VkImageSubresourceRange, ptr %44, i32 0, i32 0
  store i32 1, ptr %45, align 8
  %46 = getelementptr inbounds nuw %struct.VkImageMemoryBarrier, ptr %17, i32 0, i32 9
  %47 = getelementptr inbounds nuw %struct.VkImageSubresourceRange, ptr %46, i32 0, i32 1
  store i32 0, ptr %47, align 4
  %48 = getelementptr inbounds nuw %struct.VkImageMemoryBarrier, ptr %17, i32 0, i32 9
  %49 = getelementptr inbounds nuw %struct.VkImageSubresourceRange, ptr %48, i32 0, i32 2
  store i32 1, ptr %49, align 8
  %50 = getelementptr inbounds nuw %struct.VkImageMemoryBarrier, ptr %17, i32 0, i32 9
  %51 = getelementptr inbounds nuw %struct.VkImageSubresourceRange, ptr %50, i32 0, i32 3
  store i32 0, ptr %51, align 4
  %52 = getelementptr inbounds nuw %struct.VkImageMemoryBarrier, ptr %17, i32 0, i32 9
  %53 = getelementptr inbounds nuw %struct.VkImageSubresourceRange, ptr %52, i32 0, i32 4
  store i32 1, ptr %53, align 8
  %54 = load ptr, ptr @vkCmdPipelineBarrier, align 8
  %55 = load ptr, ptr %9, align 8
  %56 = getelementptr inbounds nuw %struct.VULKAN_RenderData, ptr %55, i32 0, i32 19
  %57 = load ptr, ptr %56, align 8
  %58 = load i32, ptr %12, align 4
  %59 = load i32, ptr %13, align 4
  call void %54(ptr noundef %57, i32 noundef %58, i32 noundef %59, i32 noundef 0, i32 noundef 0, ptr noundef null, i32 noundef 0, ptr noundef null, i32 noundef 1, ptr noundef %17)
  %60 = load i32, ptr %14, align 4
  %61 = load ptr, ptr %16, align 8
  store i32 %60, ptr %61, align 4
  call void @llvm.lifetime.end.p0(i64 72, ptr %17) #6
  ret void
}

; Function Attrs: nounwind uwtable
define internal void @VULKAN_UnlockTexture(ptr noundef %0, ptr noundef %1) #0 {
  %3 = alloca ptr, align 8
  %4 = alloca ptr, align 8
  %5 = alloca ptr, align 8
  %6 = alloca ptr, align 8
  %7 = alloca i32, align 4
  %8 = alloca %struct.VkBufferImageCopy, align 8
  store ptr %0, ptr %3, align 8
  store ptr %1, ptr %4, align 8
  call void @llvm.lifetime.start.p0(i64 8, ptr %5) #6
  %9 = load ptr, ptr %3, align 8
  %10 = getelementptr inbounds nuw %struct.SDL_Renderer, ptr %9, i32 0, i32 77
  %11 = load ptr, ptr %10, align 8
  store ptr %11, ptr %5, align 8
  call void @llvm.lifetime.start.p0(i64 8, ptr %6) #6
  %12 = load ptr, ptr %4, align 8
  %13 = getelementptr inbounds nuw %struct.SDL_Texture, ptr %12, i32 0, i32 21
  %14 = load ptr, ptr %13, align 8
  store ptr %14, ptr %6, align 8
  %15 = load ptr, ptr %6, align 8
  %16 = icmp ne ptr %15, null
  br i1 %16, label %18, label %17

17:                                               ; preds = %2
  store i32 1, ptr %7, align 4
  br label %96

18:                                               ; preds = %2
  %19 = load ptr, ptr %5, align 8
  call void @VULKAN_EnsureCommandBuffer(ptr noundef %19)
  %20 = load ptr, ptr %5, align 8
  %21 = load ptr, ptr %6, align 8
  %22 = getelementptr inbounds nuw %struct.VULKAN_TextureData, ptr %21, i32 0, i32 0
  %23 = getelementptr inbounds nuw %struct.VULKAN_Image, ptr %22, i32 0, i32 1
  %24 = load ptr, ptr %23, align 8
  %25 = load ptr, ptr %6, align 8
  %26 = getelementptr inbounds nuw %struct.VULKAN_TextureData, ptr %25, i32 0, i32 0
  %27 = getelementptr inbounds nuw %struct.VULKAN_Image, ptr %26, i32 0, i32 4
  call void @VULKAN_RecordPipelineImageBarrier(ptr noundef %20, i32 noundef 6560, i32 noundef 4096, i32 noundef 5248, i32 noundef 4096, i32 noundef 7, ptr noundef %24, ptr noundef %27)
  call void @llvm.lifetime.start.p0(i64 56, ptr %8) #6
  %28 = getelementptr inbounds nuw %struct.VkBufferImageCopy, ptr %8, i32 0, i32 0
  store i64 0, ptr %28, align 8
  %29 = getelementptr inbounds nuw %struct.VkBufferImageCopy, ptr %8, i32 0, i32 1
  store i32 0, ptr %29, align 8
  %30 = getelementptr inbounds nuw %struct.VkBufferImageCopy, ptr %8, i32 0, i32 2
  store i32 0, ptr %30, align 4
  %31 = getelementptr inbounds nuw %struct.VkBufferImageCopy, ptr %8, i32 0, i32 3
  %32 = getelementptr inbounds nuw %struct.VkImageSubresourceLayers, ptr %31, i32 0, i32 2
  store i32 0, ptr %32, align 8
  %33 = getelementptr inbounds nuw %struct.VkBufferImageCopy, ptr %8, i32 0, i32 3
  %34 = getelementptr inbounds nuw %struct.VkImageSubresourceLayers, ptr %33, i32 0, i32 3
  store i32 1, ptr %34, align 4
  %35 = getelementptr inbounds nuw %struct.VkBufferImageCopy, ptr %8, i32 0, i32 3
  %36 = getelementptr inbounds nuw %struct.VkImageSubresourceLayers, ptr %35, i32 0, i32 1
  store i32 0, ptr %36, align 4
  %37 = getelementptr inbounds nuw %struct.VkBufferImageCopy, ptr %8, i32 0, i32 3
  %38 = getelementptr inbounds nuw %struct.VkImageSubresourceLayers, ptr %37, i32 0, i32 0
  store i32 1, ptr %38, align 8
  %39 = load ptr, ptr %6, align 8
  %40 = getelementptr inbounds nuw %struct.VULKAN_TextureData, ptr %39, i32 0, i32 4
  %41 = getelementptr inbounds nuw %struct.SDL_Rect, ptr %40, i32 0, i32 0
  %42 = load i32, ptr %41, align 8
  %43 = getelementptr inbounds nuw %struct.VkBufferImageCopy, ptr %8, i32 0, i32 4
  %44 = getelementptr inbounds nuw %struct.VkOffset3D, ptr %43, i32 0, i32 0
  store i32 %42, ptr %44, align 8
  %45 = load ptr, ptr %6, align 8
  %46 = getelementptr inbounds nuw %struct.VULKAN_TextureData, ptr %45, i32 0, i32 4
  %47 = getelementptr inbounds nuw %struct.SDL_Rect, ptr %46, i32 0, i32 1
  %48 = load i32, ptr %47, align 4
  %49 = getelementptr inbounds nuw %struct.VkBufferImageCopy, ptr %8, i32 0, i32 4
  %50 = getelementptr inbounds nuw %struct.VkOffset3D, ptr %49, i32 0, i32 1
  store i32 %48, ptr %50, align 4
  %51 = getelementptr inbounds nuw %struct.VkBufferImageCopy, ptr %8, i32 0, i32 4
  %52 = getelementptr inbounds nuw %struct.VkOffset3D, ptr %51, i32 0, i32 2
  store i32 0, ptr %52, align 8
  %53 = load ptr, ptr %6, align 8
  %54 = getelementptr inbounds nuw %struct.VULKAN_TextureData, ptr %53, i32 0, i32 4
  %55 = getelementptr inbounds nuw %struct.SDL_Rect, ptr %54, i32 0, i32 2
  %56 = load i32, ptr %55, align 8
  %57 = getelementptr inbounds nuw %struct.VkBufferImageCopy, ptr %8, i32 0, i32 5
  %58 = getelementptr inbounds nuw %struct.VkExtent3D, ptr %57, i32 0, i32 0
  store i32 %56, ptr %58, align 4
  %59 = load ptr, ptr %6, align 8
  %60 = getelementptr inbounds nuw %struct.VULKAN_TextureData, ptr %59, i32 0, i32 4
  %61 = getelementptr inbounds nuw %struct.SDL_Rect, ptr %60, i32 0, i32 3
  %62 = load i32, ptr %61, align 4
  %63 = getelementptr inbounds nuw %struct.VkBufferImageCopy, ptr %8, i32 0, i32 5
  %64 = getelementptr inbounds nuw %struct.VkExtent3D, ptr %63, i32 0, i32 1
  store i32 %62, ptr %64, align 4
  %65 = getelementptr inbounds nuw %struct.VkBufferImageCopy, ptr %8, i32 0, i32 5
  %66 = getelementptr inbounds nuw %struct.VkExtent3D, ptr %65, i32 0, i32 2
  store i32 1, ptr %66, align 4
  %67 = load ptr, ptr @vkCmdCopyBufferToImage, align 8
  %68 = load ptr, ptr %5, align 8
  %69 = getelementptr inbounds nuw %struct.VULKAN_RenderData, ptr %68, i32 0, i32 19
  %70 = load ptr, ptr %69, align 8
  %71 = load ptr, ptr %6, align 8
  %72 = getelementptr inbounds nuw %struct.VULKAN_TextureData, ptr %71, i32 0, i32 3
  %73 = getelementptr inbounds nuw %struct.VULKAN_Buffer, ptr %72, i32 0, i32 1
  %74 = load ptr, ptr %73, align 8
  %75 = load ptr, ptr %6, align 8
  %76 = getelementptr inbounds nuw %struct.VULKAN_TextureData, ptr %75, i32 0, i32 0
  %77 = getelementptr inbounds nuw %struct.VULKAN_Image, ptr %76, i32 0, i32 1
  %78 = load ptr, ptr %77, align 8
  %79 = load ptr, ptr %6, align 8
  %80 = getelementptr inbounds nuw %struct.VULKAN_TextureData, ptr %79, i32 0, i32 0
  %81 = getelementptr inbounds nuw %struct.VULKAN_Image, ptr %80, i32 0, i32 4
  %82 = load i32, ptr %81, align 8
  call void %67(ptr noundef %70, ptr noundef %74, ptr noundef %78, i32 noundef %82, i32 noundef 1, ptr noundef %8)
  %83 = load ptr, ptr %5, align 8
  %84 = load ptr, ptr %6, align 8
  %85 = getelementptr inbounds nuw %struct.VULKAN_TextureData, ptr %84, i32 0, i32 0
  %86 = getelementptr inbounds nuw %struct.VULKAN_Image, ptr %85, i32 0, i32 1
  %87 = load ptr, ptr %86, align 8
  %88 = load ptr, ptr %6, align 8
  %89 = getelementptr inbounds nuw %struct.VULKAN_TextureData, ptr %88, i32 0, i32 0
  %90 = getelementptr inbounds nuw %struct.VULKAN_Image, ptr %89, i32 0, i32 4
  call void @VULKAN_RecordPipelineImageBarrier(ptr noundef %83, i32 noundef 4096, i32 noundef 32, i32 noundef 4096, i32 noundef 128, i32 noundef 5, ptr noundef %87, ptr noundef %90)
  %91 = load ptr, ptr %5, align 8
  %92 = call i32 @VULKAN_IssueBatch(ptr noundef %91)
  %93 = load ptr, ptr %5, align 8
  %94 = load ptr, ptr %6, align 8
  %95 = getelementptr inbounds nuw %struct.VULKAN_TextureData, ptr %94, i32 0, i32 3
  call void @VULKAN_DestroyBuffer(ptr noundef %93, ptr noundef %95)
  call void @llvm.lifetime.end.p0(i64 56, ptr %8) #6
  store i32 0, ptr %7, align 4
  br label %96

96:                                               ; preds = %18, %17
  call void @llvm.lifetime.end.p0(i64 8, ptr %6) #6
  call void @llvm.lifetime.end.p0(i64 8, ptr %5) #6
  %97 = load i32, ptr %7, align 4
  switch i32 %97, label %99 [
    i32 0, label %98
    i32 1, label %98
  ]

98:                                               ; preds = %96, %96
  ret void

99:                                               ; preds = %96
  unreachable
}