; Function Attrs: nounwind uwtable
define internal void @VULKAN_UnlockTexture(ptr noundef readonly captures(none) %0, ptr noundef readonly captures(none) %1) #0 {
  %3 = alloca %struct.VkImageMemoryBarrier, align 8
  %4 = alloca %struct.VkImageMemoryBarrier, align 8
  %5 = alloca %struct.VkBufferImageCopy, align 8
  %6 = getelementptr inbounds nuw i8, ptr %1, i64 280
  %7 = load ptr, ptr %6, align 8
  %.not = icmp eq ptr %7, null
  br i1 %.not, label %88, label %8

8:                                                ; preds = %2
  %9 = getelementptr inbounds nuw i8, ptr %0, i64 696
  %10 = load ptr, ptr %9, align 8
  tail call fastcc void @VULKAN_EnsureCommandBuffer(ptr noundef %10)
  %11 = getelementptr inbounds nuw i8, ptr %7, i64 8
  %12 = load ptr, ptr %11, align 8
  %13 = getelementptr inbounds nuw i8, ptr %7, i64 32
  %14 = getelementptr inbounds nuw i8, ptr %10, i64 1808
  %15 = load ptr, ptr %14, align 8
  %.not.i = icmp eq ptr %15, null
  br i1 %.not.i, label %VULKAN_RecordPipelineImageBarrier.exit, label %16

16:                                               ; preds = %8
  %17 = load ptr, ptr @vkCmdEndRenderPass, align 8
  %18 = getelementptr inbounds nuw i8, ptr %10, i64 1688
  %19 = load ptr, ptr %18, align 8
  tail call void %17(ptr noundef %19) #8
  store ptr null, ptr %14, align 8
  br label %VULKAN_RecordPipelineImageBarrier.exit

VULKAN_RecordPipelineImageBarrier.exit:           ; preds = %8, %16
  call void @llvm.lifetime.start.p0(i64 72, ptr nonnull %4) #8
  call void @llvm.memset.p0.i64(ptr noundef nonnull align 8 dereferenceable(72) %4, i8 0, i64 72, i1 false)
  store i32 45, ptr %4, align 8
  %20 = getelementptr inbounds nuw i8, ptr %4, i64 16
  store i32 6560, ptr %20, align 8
  %21 = getelementptr inbounds nuw i8, ptr %4, i64 20
  store i32 4096, ptr %21, align 4
  %22 = load i32, ptr %13, align 4
  %23 = getelementptr inbounds nuw i8, ptr %4, i64 24
  store i32 %22, ptr %23, align 8
  %24 = getelementptr inbounds nuw i8, ptr %4, i64 28
  store i32 7, ptr %24, align 4
  %25 = getelementptr inbounds nuw i8, ptr %4, i64 32
  store i32 -1, ptr %25, align 8
  %26 = getelementptr inbounds nuw i8, ptr %4, i64 36
  store i32 -1, ptr %26, align 4
  %27 = getelementptr inbounds nuw i8, ptr %4, i64 40
  store ptr %12, ptr %27, align 8
  %28 = getelementptr inbounds nuw i8, ptr %4, i64 48
  store i32 1, ptr %28, align 8
  %29 = getelementptr inbounds nuw i8, ptr %4, i64 56
  store i32 1, ptr %29, align 8
  %30 = getelementptr inbounds nuw i8, ptr %4, i64 64
  store i32 1, ptr %30, align 8
  %31 = load ptr, ptr @vkCmdPipelineBarrier, align 8
  %32 = getelementptr inbounds nuw i8, ptr %10, i64 1688
  %33 = load ptr, ptr %32, align 8
  call void %31(ptr noundef %33, i32 noundef 5248, i32 noundef 4096, i32 noundef 0, i32 noundef 0, ptr noundef null, i32 noundef 0, ptr noundef null, i32 noundef 1, ptr noundef nonnull %4) #8
  store i32 7, ptr %13, align 4
  call void @llvm.lifetime.end.p0(i64 72, ptr nonnull %4) #8
  call void @llvm.lifetime.start.p0(i64 56, ptr nonnull %5) #8
  %34 = getelementptr inbounds nuw i8, ptr %5, i64 16
  %35 = getelementptr inbounds nuw i8, ptr %5, i64 24
  store i32 0, ptr %35, align 8
  %36 = getelementptr inbounds nuw i8, ptr %5, i64 28
  call void @llvm.memset.p0.i64(ptr noundef nonnull align 8 dereferenceable(16) %5, i8 0, i64 16, i1 false)
  store i32 1, ptr %36, align 4
  %37 = getelementptr inbounds nuw i8, ptr %5, i64 20
  store i32 0, ptr %37, align 4
  store i32 1, ptr %34, align 8
  %38 = getelementptr inbounds nuw i8, ptr %7, i64 96
  %39 = load i32, ptr %38, align 8
  %40 = getelementptr inbounds nuw i8, ptr %5, i64 32
  store i32 %39, ptr %40, align 8
  %41 = getelementptr inbounds nuw i8, ptr %7, i64 100
  %42 = load i32, ptr %41, align 4
  %43 = getelementptr inbounds nuw i8, ptr %5, i64 36
  store i32 %42, ptr %43, align 4
  %44 = getelementptr inbounds nuw i8, ptr %5, i64 40
  store i32 0, ptr %44, align 8
  %45 = getelementptr inbounds nuw i8, ptr %7, i64 104
  %46 = load i32, ptr %45, align 8
  %47 = getelementptr inbounds nuw i8, ptr %5, i64 44
  store i32 %46, ptr %47, align 4
  %48 = getelementptr inbounds nuw i8, ptr %7, i64 108
  %49 = load i32, ptr %48, align 4
  %50 = getelementptr inbounds nuw i8, ptr %5, i64 48
  store i32 %49, ptr %50, align 8
  %51 = getelementptr inbounds nuw i8, ptr %5, i64 52
  store i32 1, ptr %51, align 4
  %52 = load ptr, ptr @vkCmdCopyBufferToImage, align 8
  %53 = load ptr, ptr %32, align 8
  %54 = getelementptr inbounds nuw i8, ptr %7, i64 64
  %55 = getelementptr inbounds nuw i8, ptr %7, i64 72
  %56 = load ptr, ptr %55, align 8
  %57 = load ptr, ptr %11, align 8
  call void %52(ptr noundef %53, ptr noundef %56, ptr noundef %57, i32 noundef 7, i32 noundef 1, ptr noundef nonnull %5) #8
  %58 = load ptr, ptr %11, align 8
  %59 = load ptr, ptr %14, align 8
  %.not.i21 = icmp eq ptr %59, null
  br i1 %.not.i21, label %VULKAN_RecordPipelineImageBarrier.exit22, label %60

60:                                               ; preds = %VULKAN_RecordPipelineImageBarrier.exit
  %61 = load ptr, ptr @vkCmdEndRenderPass, align 8
  %62 = load ptr, ptr %32, align 8
  call void %61(ptr noundef %62) #8
  store ptr null, ptr %14, align 8
  br label %VULKAN_RecordPipelineImageBarrier.exit22

VULKAN_RecordPipelineImageBarrier.exit22:         ; preds = %VULKAN_RecordPipelineImageBarrier.exit, %60
  call void @llvm.lifetime.start.p0(i64 72, ptr nonnull %3) #8
  call void @llvm.memset.p0.i64(ptr noundef nonnull align 8 dereferenceable(72) %3, i8 0, i64 72, i1 false)
  store i32 45, ptr %3, align 8
  %63 = getelementptr inbounds nuw i8, ptr %3, i64 16
  store i32 4096, ptr %63, align 8
  %64 = getelementptr inbounds nuw i8, ptr %3, i64 20
  store i32 32, ptr %64, align 4
  %65 = load i32, ptr %13, align 4
  %66 = getelementptr inbounds nuw i8, ptr %3, i64 24
  store i32 %65, ptr %66, align 8
  %67 = getelementptr inbounds nuw i8, ptr %3, i64 28
  store i32 5, ptr %67, align 4
  %68 = getelementptr inbounds nuw i8, ptr %3, i64 32
  store i32 -1, ptr %68, align 8
  %69 = getelementptr inbounds nuw i8, ptr %3, i64 36
  store i32 -1, ptr %69, align 4
  %70 = getelementptr inbounds nuw i8, ptr %3, i64 40
  store ptr %58, ptr %70, align 8
  %71 = getelementptr inbounds nuw i8, ptr %3, i64 48
  store i32 1, ptr %71, align 8
  %72 = getelementptr inbounds nuw i8, ptr %3, i64 56
  store i32 1, ptr %72, align 8
  %73 = getelementptr inbounds nuw i8, ptr %3, i64 64
  store i32 1, ptr %73, align 8
  %74 = load ptr, ptr @vkCmdPipelineBarrier, align 8
  %75 = load ptr, ptr %32, align 8
  call void %74(ptr noundef %75, i32 noundef 4096, i32 noundef 128, i32 noundef 0, i32 noundef 0, ptr noundef null, i32 noundef 0, ptr noundef null, i32 noundef 1, ptr noundef nonnull %3) #8
  store i32 5, ptr %13, align 4
  call void @llvm.lifetime.end.p0(i64 72, ptr nonnull %3) #8
  %76 = call fastcc i32 @VULKAN_IssueBatch(ptr noundef nonnull %10)
  %77 = load ptr, ptr %55, align 8
  %.not.i23 = icmp eq ptr %77, null
  br i1 %.not.i23, label %82, label %78

78:                                               ; preds = %VULKAN_RecordPipelineImageBarrier.exit22
  %79 = load ptr, ptr @vkDestroyBuffer, align 8
  %80 = getelementptr inbounds nuw i8, ptr %10, i64 1632
  %81 = load ptr, ptr %80, align 8
  call void %79(ptr noundef %81, ptr noundef nonnull %77, ptr noundef null) #8
  store ptr null, ptr %55, align 8
  br label %82

82:                                               ; preds = %78, %VULKAN_RecordPipelineImageBarrier.exit22
  %83 = load ptr, ptr %54, align 8
  %.not10.i = icmp eq ptr %83, null
  br i1 %.not10.i, label %VULKAN_DestroyBuffer.exit, label %84

84:                                               ; preds = %82
  %85 = load ptr, ptr @vkFreeMemory, align 8
  %86 = getelementptr inbounds nuw i8, ptr %10, i64 1632
  %87 = load ptr, ptr %86, align 8
  call void %85(ptr noundef %87, ptr noundef nonnull %83, ptr noundef null) #8
  br label %VULKAN_DestroyBuffer.exit

VULKAN_DestroyBuffer.exit:                        ; preds = %82, %84
  call void @llvm.memset.p0.i64(ptr noundef nonnull align 8 dereferenceable(32) %54, i8 0, i64 32, i1 false)
  call void @llvm.lifetime.end.p0(i64 56, ptr nonnull %5) #8
  br label %88

88:                                               ; preds = %2, %VULKAN_DestroyBuffer.exit
  ret void
}